target datalayout = "e-m:e-p270:32:32-p271:32:32-p272:64:64-i64:64-i128:128-f80:128-n8:16:32:64-S128"
target triple = "x86_64-pc-linux-gnu"

%struct.z_stream_s = type { ptr, i32, i64, ptr, i32, i64, ptr, ptr, ptr, ptr, ptr, i32, i64, i64 }

@.str = private unnamed_addr constant [7 x i8] c"1.2.11\00", align 1
@stdout = external global ptr, align 8

; Function Attrs: nounwind uwtable
define dso_local void @hugehelp() #0 {
  %1 = alloca ptr, align 8
  %2 = alloca i32, align 4
  %3 = alloca %struct.z_stream_s, align 8
  %4 = alloca i32, align 4
  call void @llvm.lifetime.start.p0(i64 8, ptr %1) #7
  call void @llvm.lifetime.start.p0(i64 4, ptr %2) #7
  call void @llvm.lifetime.start.p0(i64 112, ptr %3) #7
  call void @llvm.memset.p0.i64(ptr align 8 %3, i8 0, i64 112, i1 false)
  %5 = getelementptr inbounds nuw %struct.z_stream_s, ptr %3, i32 0, i32 8
  store ptr @zalloc_func, ptr %5, align 8, !tbaa !4
  %6 = getelementptr inbounds nuw %struct.z_stream_s, ptr %3, i32 0, i32 9
  store ptr @zfree_func, ptr %6, align 8, !tbaa !13
  %7 = getelementptr inbounds nuw %struct.z_stream_s, ptr %3, i32 0, i32 1
  store i32 76512, ptr %7, align 8, !tbaa !14
  %8 = getelementptr inbounds nuw %struct.z_stream_s, ptr %3, i32 0, i32 0
  store ptr getelementptr inbounds (i8, ptr @hugehelpgz, i64 10), ptr %8, align 8, !tbaa !15
  %9 = call i32 @inflateInit2_(ptr noundef %3, i32 noundef -15, ptr noundef @.str, i32 noundef 112)
  %10 = icmp ne i32 %9, 0
  br i1 %10, label %11, label %12

11:                                               ; preds = %0
  store i32 1, ptr %4, align 4
  br label %46

12:                                               ; preds = %0
  %13 = call noalias ptr @malloc(i64 noundef 65536) #8
  store ptr %13, ptr %1, align 8, !tbaa !16
  %14 = load ptr, ptr %1, align 8, !tbaa !16
  %15 = icmp ne ptr %14, null
  br i1 %15, label %16, label %44

16:                                               ; preds = %12
  br label %17

17:                                               ; preds = %41, %16
  br label %18

18:                                               ; preds = %17
  %19 = getelementptr inbounds nuw %struct.z_stream_s, ptr %3, i32 0, i32 4
  store i32 65536, ptr %19, align 8, !tbaa !17
  %20 = load ptr, ptr %1, align 8, !tbaa !16
  %21 = getelementptr inbounds nuw %struct.z_stream_s, ptr %3, i32 0, i32 3
  store ptr %20, ptr %21, align 8, !tbaa !18
  %22 = call i32 @inflate(ptr noundef %3, i32 noundef 2)
  store i32 %22, ptr %2, align 4, !tbaa !19
  %23 = load i32, ptr %2, align 4, !tbaa !19
  %24 = icmp eq i32 %23, 0
  br i1 %24, label %28, label %25

25:                                               ; preds = %18
  %26 = load i32, ptr %2, align 4, !tbaa !19
  %27 = icmp eq i32 %26, 1
  br i1 %27, label %28, label %40

28:                                               ; preds = %25, %18
  %29 = load ptr, ptr %1, align 8, !tbaa !16
  %30 = getelementptr inbounds nuw %struct.z_stream_s, ptr %3, i32 0, i32 4
  %31 = load i32, ptr %30, align 8, !tbaa !17
  %32 = sub i32 65536, %31
  %33 = zext i32 %32 to i64
  %34 = load ptr, ptr @stdout, align 8, !tbaa !20
  %35 = call i64 @fwrite(ptr noundef %29, i64 noundef %33, i64 noundef 1, ptr noundef %34)
  %36 = load i32, ptr %2, align 4, !tbaa !19
  %37 = icmp eq i32 %36, 1
  br i1 %37, label %38, label %39

38:                                               ; preds = %28
  br label %42

39:                                               ; preds = %28
  br label %41

40:                                               ; preds = %25
  br label %42

41:                                               ; preds = %39
  br label %17

42:                                               ; preds = %40, %38
  %43 = load ptr, ptr %1, align 8, !tbaa !16
  call void @free(ptr noundef %43) #7
  br label %44

44:                                               ; preds = %42, %12
  %45 = call i32 @inflateEnd(ptr noundef %3)
  store i32 0, ptr %4, align 4
  br label %46

46:                                               ; preds = %44, %11
  call void @llvm.lifetime.end.p0(i64 112, ptr %3) #7
  call void @llvm.lifetime.end.p0(i64 4, ptr %2) #7
  call void @llvm.lifetime.end.p0(i64 8, ptr %1) #7
  %47 = load i32, ptr %4, align 4
  switch i32 %47, label %49 [
    i32 0, label %48
    i32 1, label %48
  ]

48:                                               ; preds = %46, %46
  ret void

49:                                               ; preds = %46
  unreachable
}