; Function Attrs: nounwind uwtable
define dso_local void @hugehelp() local_unnamed_addr #0 {
  %1 = alloca %struct.z_stream_s, align 8
  call void @llvm.lifetime.start.p0(i64 112, ptr nonnull %1) #10
  %2 = getelementptr inbounds nuw i8, ptr %1, i64 8
  call void @llvm.memset.p0.i64(ptr noundef nonnull align 8 dereferenceable(112) %2, i8 0, i64 104, i1 false)
  %3 = getelementptr inbounds nuw i8, ptr %1, i64 64
  store ptr @zalloc_func, ptr %3, align 8, !tbaa !4
  %4 = getelementptr inbounds nuw i8, ptr %1, i64 72
  store ptr @zfree_func, ptr %4, align 8, !tbaa !13
  %5 = getelementptr inbounds nuw i8, ptr %1, i64 8
  store i32 76512, ptr %5, align 8, !tbaa !14
  store ptr getelementptr inbounds nuw (i8, ptr @hugehelpgz, i64 10), ptr %1, align 8, !tbaa !15
  %6 = call i32 @inflateInit2_(ptr noundef nonnull %1, i32 noundef -15, ptr noundef nonnull @.str, i32 noundef 112) #10
  %.not = icmp eq i32 %6, 0
  br i1 %.not, label %7, label %23

7:                                                ; preds = %0
  %8 = call noalias dereferenceable_or_null(65536) ptr @malloc(i64 noundef 65536) #11
  %.not7 = icmp eq ptr %8, null
  br i1 %.not7, label %21, label %.preheader

.preheader:                                       ; preds = %7
  %9 = getelementptr inbounds nuw i8, ptr %1, i64 32
  %10 = getelementptr inbounds nuw i8, ptr %1, i64 24
  br label %11

11:                                               ; preds = %.preheader, %13
  store i32 65536, ptr %9, align 8, !tbaa !16
  store ptr %8, ptr %10, align 8, !tbaa !17
  %12 = call i32 @inflate(ptr noundef nonnull %1, i32 noundef 2) #10
  %or.cond = icmp ult i32 %12, 2
  br i1 %or.cond, label %13, label %20

13:                                               ; preds = %11
  %14 = icmp eq i32 %12, 1
  %15 = load i32, ptr %9, align 8, !tbaa !16
  %16 = sub i32 65536, %15
  %17 = zext i32 %16 to i64
  %18 = load ptr, ptr @stdout, align 8, !tbaa !18
  %19 = call i64 @fwrite(ptr noundef nonnull %8, i64 noundef %17, i64 noundef 1, ptr noundef %18)
  br i1 %14, label %20, label %11

20:                                               ; preds = %11, %13
  call void @free(ptr noundef nonnull %8) #10
  br label %21

21:                                               ; preds = %20, %7
  %22 = call i32 @inflateEnd(ptr noundef nonnull %1) #10
  br label %23

23:                                               ; preds = %0, %21
  call void @llvm.lifetime.end.p0(i64 112, ptr nonnull %1) #10
  ret void
}